; ModuleID = '501.c'
source_filename = "501.c"
target datalayout = "e-m:e-p270:32:32-p271:32:32-p272:64:64-i64:64-f80:128-n8:16:32:64-S128"
target triple = "x86_64-pc-linux-gnu"

@n = dso_local global i32 0, align 4
@a = common dso_local global [16 x i32] zeroinitializer, align 16
@.str = private unnamed_addr constant [3 x i8] c"%d\00", align 1
@.str.1 = private unnamed_addr constant [4 x i8] c"%d\0A\00", align 1

; Function Attrs: noinline nounwind uwtable
define dso_local i32 @do_LB() #0 {
  %1 = alloca i32, align 4
  %2 = alloca i32, align 4
  %3 = alloca i32, align 4
  store i32 0, i32* %3, align 4
  store i32 0, i32* %1, align 4
  br label %4

4:                                                ; preds = %53, %0
  %5 = load i32, i32* %1, align 4
  %6 = load i32, i32* @n, align 4
  %7 = icmp slt i32 %5, %6
  br i1 %7, label %8, label %56

8:                                                ; preds = %4
  %9 = load i32, i32* %1, align 4
  %10 = add nsw i32 %9, 1
  store i32 %10, i32* %2, align 4
  br label %11

11:                                               ; preds = %49, %8
  %12 = load i32, i32* %2, align 4
  %13 = load i32, i32* @n, align 4
  %14 = icmp slt i32 %12, %13
  br i1 %14, label %15, label %52

15:                                               ; preds = %11
  %16 = load i32, i32* %1, align 4
  %17 = sext i32 %16 to i64
  %18 = getelementptr inbounds [16 x i32], [16 x i32]* @a, i64 0, i64 %17
  %19 = load i32, i32* %18, align 4
  %20 = load i32, i32* %2, align 4
  %21 = sext i32 %20 to i64
  %22 = getelementptr inbounds [16 x i32], [16 x i32]* @a, i64 0, i64 %21
  %23 = load i32, i32* %22, align 4
  %24 = load i32, i32* %2, align 4
  %25 = sext i32 %24 to i64
  %26 = getelementptr inbounds [16 x i32], [16 x i32]* @a, i64 0, i64 %25
  %27 = load i32, i32* %26, align 4
  %28 = add nsw i32 %23, %27
  %29 = icmp eq i32 %19, %28
  br i1 %29, label %45, label %30

30:                                               ; preds = %15
  %31 = load i32, i32* %2, align 4
  %32 = sext i32 %31 to i64
  %33 = getelementptr inbounds [16 x i32], [16 x i32]* @a, i64 0, i64 %32
  %34 = load i32, i32* %33, align 4
  %35 = load i32, i32* %1, align 4
  %36 = sext i32 %35 to i64
  %37 = getelementptr inbounds [16 x i32], [16 x i32]* @a, i64 0, i64 %36
  %38 = load i32, i32* %37, align 4
  %39 = load i32, i32* %1, align 4
  %40 = sext i32 %39 to i64
  %41 = getelementptr inbounds [16 x i32], [16 x i32]* @a, i64 0, i64 %40
  %42 = load i32, i32* %41, align 4
  %43 = add nsw i32 %38, %42
  %44 = icmp eq i32 %34, %43
  br i1 %44, label %45, label %48

45:                                               ; preds = %30, %15
  %46 = load i32, i32* %3, align 4
  %47 = add nsw i32 %46, 1
  store i32 %47, i32* %3, align 4
  br label %48

48:                                               ; preds = %45, %30
  br label %49

49:                                               ; preds = %48
  %50 = load i32, i32* %2, align 4
  %51 = add nsw i32 %50, 1
  store i32 %51, i32* %2, align 4
  br label %11

52:                                               ; preds = %11
  br label %53

53:                                               ; preds = %52
  %54 = load i32, i32* %1, align 4
  %55 = add nsw i32 %54, 1
  store i32 %55, i32* %1, align 4
  br label %4

56:                                               ; preds = %4
  store i32 0, i32* @n, align 4
  %57 = load i32, i32* %3, align 4
  ret i32 %57
}

; Function Attrs: noinline nounwind uwtable
define dso_local i32 @main() #0 {
  %1 = alloca i32, align 4
  %2 = alloca i32, align 4
  store i32 0, i32* %1, align 4
  br label %3

3:                                                ; preds = %20, %0
  %4 = call i32 (i8*, ...) @__isoc99_scanf(i8* getelementptr inbounds ([3 x i8], [3 x i8]* @.str, i64 0, i64 0), i32* %2)
  %5 = load i32, i32* %2, align 4
  %6 = icmp eq i32 %5, -1
  br i1 %6, label %7, label %8

7:                                                ; preds = %3
  store i32 0, i32* %1, align 4
  br label %22

8:                                                ; preds = %3
  %9 = load i32, i32* %2, align 4
  %10 = icmp eq i32 %9, 0
  br i1 %10, label %11, label %14

11:                                               ; preds = %8
  %12 = call i32 @do_LB()
  %13 = call i32 (i8*, ...) @printf(i8* getelementptr inbounds ([4 x i8], [4 x i8]* @.str.1, i64 0, i64 0), i32 %12)
  br label %14

14:                                               ; preds = %11, %8
  %15 = load i32, i32* %2, align 4
  %16 = load i32, i32* @n, align 4
  %17 = add nsw i32 %16, 1
  store i32 %17, i32* @n, align 4
  %18 = sext i32 %16 to i64
  %19 = getelementptr inbounds [16 x i32], [16 x i32]* @a, i64 0, i64 %18
  store i32 %15, i32* %19, align 4
  br label %20

20:                                               ; preds = %14
  br i1 true, label %3, label %21

21:                                               ; preds = %20
  store i32 0, i32* %1, align 4
  br label %22

22:                                               ; preds = %21, %7
  %23 = load i32, i32* %1, align 4
  ret i32 %23
}

declare dso_local i32 @__isoc99_scanf(i8*, ...) #1

declare dso_local i32 @printf(i8*, ...) #1


!llvm.module.flags = !{!0}
!llvm.ident = !{!1}

!0 = !{i32 1, !"wchar_size", i32 4}
!1 = !{!"clang version 10.0.0-4ubuntu1 "}
